; Function Attrs: mustprogress nounwind uwtable
define dso_local void @_ZN5clang6format13MacroExpanderC2ERKSt6vectorINSt7__cxx1112basic_stringIcSt11char_traitsIcESaIcEEESaIS8_EERNS_13SourceManagerERKNS0_11FormatStyleERN4llvm24SpecificBumpPtrAllocatorINS0_11FormatTokenEEERNS_15IdentifierTableE(ptr noundef nonnull align 8 dereferenceable(144) %0, ptr nocapture noundef nonnull readonly align 8 dereferenceable(24) %1, ptr noundef nonnull align 8 dereferenceable(696) %2, ptr noundef nonnull align 8 dereferenceable(936) %3, ptr noundef nonnull align 8 dereferenceable(96) %4, ptr noundef nonnull align 8 dereferenceable(128) %5) unnamed_addr #0 align 2 {
  store ptr %2, ptr %0, align 8
  %7 = getelementptr inbounds nuw i8, ptr %0, i64 8
  store ptr %3, ptr %7, align 8
  %8 = getelementptr inbounds nuw i8, ptr %0, i64 16
  store ptr %4, ptr %8, align 8
  %9 = getelementptr inbounds nuw i8, ptr %0, i64 24
  store ptr %5, ptr %9, align 8
  %10 = getelementptr inbounds nuw i8, ptr %0, i64 32
  %11 = getelementptr inbounds i8, ptr %0, i64 48
  tail call void @_ZN4llvm15SmallVectorBaseIjEC2EPvm(ptr noundef nonnull align 8 dereferenceable(16) %10, ptr noundef nonnull %11, i64 noundef 6) #10
  %12 = getelementptr inbounds nuw i8, ptr %0, i64 96
  %13 = getelementptr inbounds i8, ptr %0, i64 116
  tail call void @llvm.memset.p0.i64(ptr noundef nonnull align 8 dereferenceable(20) %12, i8 0, i64 20, i1 false)
  store i32 32, ptr %13, align 4
  %14 = getelementptr inbounds nuw i8, ptr %0, i64 120
  %15 = getelementptr inbounds i8, ptr %0, i64 140
  tail call void @llvm.memset.p0.i64(ptr noundef nonnull align 8 dereferenceable(20) %14, i8 0, i64 20, i1 false)
  store i32 216, ptr %15, align 4
  %16 = load ptr, ptr %1, align 8
  %17 = getelementptr inbounds nuw i8, ptr %1, i64 8
  %18 = load ptr, ptr %17, align 8
  %.not12 = icmp eq ptr %16, %18
  br i1 %.not12, label %._crit_edge, label %.lr.ph

.lr.ph:                                           ; preds = %6, %.lr.ph
  %.sroa.09.013 = phi ptr [ %19, %.lr.ph ], [ %16, %6 ]
  tail call void @_ZN5clang6format13MacroExpander15parseDefinitionERKNSt7__cxx1112basic_stringIcSt11char_traitsIcESaIcEEE(ptr noundef nonnull align 8 dereferenceable(144) %0, ptr noundef nonnull align 8 dereferenceable(32) %.sroa.09.013)
  %19 = getelementptr inbounds i8, ptr %.sroa.09.013, i64 32
  %.not = icmp eq ptr %19, %18
  br i1 %.not, label %._crit_edge, label %.lr.ph

._crit_edge:                                      ; preds = %.lr.ph, %6
  ret void
}